target datalayout = "e-m:e-p270:32:32-p271:32:32-p272:64:64-i64:64-i128:128-f80:128-n8:16:32:64-S128"
target triple = "x86_64-pc-linux-gnu"

%"class.std::__cxx11::basic_string" = type { %"struct.std::__cxx11::basic_string<char>::_Alloc_hider", i64, %union.anon }
%"struct.std::__cxx11::basic_string<char>::_Alloc_hider" = type { ptr }
%union.anon = type { i64, [8 x i8] }

@.str.18 = private unnamed_addr constant [5 x i8] c"once\00", align 1
@stderr = external global ptr, align 8
@.str.21 = private unnamed_addr constant [16 x i8] c"pthread %s: %s\0A\00", align 1

; Function Attrs: mustprogress nounwind uwtable
define available_externally noundef ptr @_ZNKSt7__cxx1112basic_stringIcSt11char_traitsIcESaIcEE7_M_dataEv(ptr noundef nonnull align 8 dereferenceable(32) %0) #3 align 2 {
  %2 = alloca ptr, align 8
  store ptr %0, ptr %2, align 8, !tbaa !33
  %3 = load ptr, ptr %2, align 8
  %4 = getelementptr inbounds nuw %"class.std::__cxx11::basic_string", ptr %3, i32 0, i32 0
  %5 = getelementptr inbounds nuw %"struct.std::__cxx11::basic_string<char>::_Alloc_hider", ptr %4, i32 0, i32 0
  %6 = load ptr, ptr %5, align 8, !tbaa !55
  ret ptr %6
}

; Function Attrs: mustprogress nounwind uwtable
define available_externally noundef ptr @_ZNKSt7__cxx1112basic_stringIcSt11char_traitsIcESaIcEE5c_strEv(ptr noundef nonnull align 8 dereferenceable(32) %0) #3 align 2 {
  %2 = alloca ptr, align 8
  store ptr %0, ptr %2, align 8, !tbaa !33
  %3 = load ptr, ptr %2, align 8
  %4 = call noundef ptr @_ZNKSt7__cxx1112basic_stringIcSt11char_traitsIcESaIcEE7_M_dataEv(ptr noundef nonnull align 8 dereferenceable(32) %3)
  ret ptr %4
}

; Function Attrs: mustprogress uwtable
define internal noundef i32 @_ZN7rocksdb4portL11PthreadCallEPKci(ptr noundef %0, i32 noundef %1) #0 {
  %3 = alloca ptr, align 8
  %4 = alloca i32, align 4
  %5 = alloca %"class.std::__cxx11::basic_string", align 8
  store ptr %0, ptr %3, align 8, !tbaa !13
  store i32 %1, ptr %4, align 4, !tbaa !15
  %6 = load i32, ptr %4, align 4, !tbaa !15
  %7 = icmp ne i32 %6, 0
  br i1 %7, label %8, label %20

8:                                                ; preds = %2
  %9 = load i32, ptr %4, align 4, !tbaa !15
  %10 = icmp ne i32 %9, 110
  br i1 %10, label %11, label %20

11:                                               ; preds = %8
  %12 = load i32, ptr %4, align 4, !tbaa !15
  %13 = icmp ne i32 %12, 16
  br i1 %13, label %14, label %20

14:                                               ; preds = %11
  %15 = load ptr, ptr @stderr, align 8, !tbaa !17
  %16 = load ptr, ptr %3, align 8, !tbaa !13
  call void @llvm.lifetime.start.p0(i64 32, ptr %5) #13
  %17 = load i32, ptr %4, align 4, !tbaa !15
  call void @_ZN7rocksdb8errnoStrB5cxx11Ei(ptr dead_on_unwind writable sret(%"class.std::__cxx11::basic_string") align 8 %5, i32 noundef %17)
  %18 = call noundef ptr @_ZNKSt7__cxx1112basic_stringIcSt11char_traitsIcESaIcEE5c_strEv(ptr noundef nonnull align 8 dereferenceable(32) %5) #13
  %19 = call i32 (ptr, ptr, ...) @fprintf(ptr noundef %15, ptr noundef @.str.21, ptr noundef %16, ptr noundef %18) #13
  call void @_ZNSt7__cxx1112basic_stringIcSt11char_traitsIcESaIcEED2Ev(ptr noundef nonnull align 8 dereferenceable(32) %5) #13
  call void @llvm.lifetime.end.p0(i64 32, ptr %5) #13
  call void @abort() #14
  unreachable

20:                                               ; preds = %11, %8, %2
  %21 = load i32, ptr %4, align 4, !tbaa !15
  ret i32 %21
}

; Function Attrs: mustprogress uwtable
define void @_ZN7rocksdb4port8InitOnceEPiPFvvE(ptr noundef %0, ptr noundef %1) #0 {
  %3 = alloca ptr, align 8
  %4 = alloca ptr, align 8
  store ptr %0, ptr %3, align 8, !tbaa !30
  store ptr %1, ptr %4, align 8, !tbaa !32
  %5 = load ptr, ptr %3, align 8, !tbaa !30
  %6 = load ptr, ptr %4, align 8, !tbaa !32
  %7 = call i32 @pthread_once(ptr noundef %5, ptr noundef %6)
  %8 = call noundef i32 @_ZN7rocksdb4portL11PthreadCallEPKci(ptr noundef @.str.18, i32 noundef %7)
  ret void
}