; Function Attrs: mustprogress uwtable
define void @_ZN7rocksdb4port8InitOnceEPiPFvvE(ptr noundef %0, ptr noundef %1) local_unnamed_addr #0 {
  %3 = alloca %"class.std::__cxx11::basic_string", align 8
  %4 = tail call i32 @pthread_once(ptr noundef %0, ptr noundef %1)
  switch i32 %4, label %5 [
    i32 110, label %_ZN7rocksdb4portL11PthreadCallEPKci.exit
    i32 16, label %_ZN7rocksdb4portL11PthreadCallEPKci.exit
    i32 0, label %_ZN7rocksdb4portL11PthreadCallEPKci.exit
  ]

5:                                                ; preds = %2
  %6 = load ptr, ptr @stderr, align 8, !tbaa !4
  call void @llvm.lifetime.start.p0(i64 32, ptr nonnull %3) #17
  call void @_ZN7rocksdb8errnoStrB5cxx11Ei(ptr dead_on_unwind nonnull writable sret(%"class.std::__cxx11::basic_string") align 8 %3, i32 noundef %4)
  %7 = load ptr, ptr %3, align 8, !tbaa !9
  %8 = call i32 (ptr, ptr, ...) @fprintf(ptr noundef %6, ptr noundef nonnull @.str.21, ptr noundef nonnull @.str.18, ptr noundef %7) #18
  call void @_ZNSt7__cxx1112basic_stringIcSt11char_traitsIcESaIcEED2Ev(ptr noundef nonnull align 8 dereferenceable(32) %3) #17
  call void @llvm.lifetime.end.p0(i64 32, ptr nonnull %3) #17
  call void @abort() #19
  unreachable

_ZN7rocksdb4portL11PthreadCallEPKci.exit:         ; preds = %2, %2, %2
  ret void
}